target datalayout = "e-m:e-p270:32:32-p271:32:32-p272:64:64-i64:64-i128:128-f80:128-n8:16:32:64-S128"
target triple = "x86_64-pc-linux-gnu"

%struct.AVRational = type { i32, i32 }
%struct.AVFormatContext = type { ptr, ptr, ptr, ptr, ptr, i32, i32, ptr, i32, ptr, i32, ptr, ptr, i64, i64, i64, i32, i32, i32, i64, i64, ptr, i32, i32, ptr, i32, i32, i32, i32, ptr, i64, i32, i32, %struct.AVIOInterruptCB, i32, i32, i32, i32, i64, i32, i32, i32, i32, i32, i32, i32, i32, i32, i32, i32, i32, i64, i32, i32, i32, i32, i32, ptr, ptr, ptr, ptr, i32, ptr, ptr, ptr, ptr, i32, ptr, ptr, i64, ptr, ptr, ptr, i64 }
%struct.AVIOInterruptCB = type { ptr, ptr }
%struct.JXLAnimDemuxContext = type { ptr }
%struct.AVBufferRef = type { ptr, ptr, i64 }
%struct.AVPacket = type { ptr, i64, i64, ptr, i32, i32, i32, ptr, i32, i64, i64, ptr, ptr, %struct.AVRational }

; Function Attrs: alwaysinline nounwind uwtable
define internal i64 @avio_tell(ptr noundef %0) #5 {
  %2 = alloca ptr, align 8
  store ptr %0, ptr %2, align 8, !tbaa !39
  %3 = load ptr, ptr %2, align 8, !tbaa !39
  %4 = call i64 @avio_seek(ptr noundef %3, i64 noundef 0, i32 noundef 1)
  ret i64 %4
}

; Function Attrs: nounwind uwtable
define internal i32 @jpegxl_anim_read_packet(ptr noundef %0, ptr noundef %1) #0 {
  %3 = alloca i32, align 4
  %4 = alloca ptr, align 8
  %5 = alloca ptr, align 8
  %6 = alloca ptr, align 8
  %7 = alloca ptr, align 8
  %8 = alloca i32, align 4
  %9 = alloca i64, align 8
  %10 = alloca i64, align 8
  %11 = alloca i32, align 4
  store ptr %0, ptr %4, align 8, !tbaa !19
  store ptr %1, ptr %5, align 8, !tbaa !72
  call void @llvm.lifetime.start.p0(i64 8, ptr %6) #6
  %12 = load ptr, ptr %4, align 8, !tbaa !19
  %13 = getelementptr inbounds nuw %struct.AVFormatContext, ptr %12, i32 0, i32 3
  %14 = load ptr, ptr %13, align 8, !tbaa !21
  store ptr %14, ptr %6, align 8, !tbaa !36
  call void @llvm.lifetime.start.p0(i64 8, ptr %7) #6
  %15 = load ptr, ptr %4, align 8, !tbaa !19
  %16 = getelementptr inbounds nuw %struct.AVFormatContext, ptr %15, i32 0, i32 4
  %17 = load ptr, ptr %16, align 8, !tbaa !38
  store ptr %17, ptr %7, align 8, !tbaa !39
  call void @llvm.lifetime.start.p0(i64 4, ptr %8) #6
  call void @llvm.lifetime.start.p0(i64 8, ptr %9) #6
  call void @llvm.lifetime.start.p0(i64 8, ptr %10) #6
  store i64 0, ptr %10, align 8, !tbaa !40
  %18 = load ptr, ptr %7, align 8, !tbaa !39
  %19 = call i64 @avio_size(ptr noundef %18)
  store i64 %19, ptr %9, align 8, !tbaa !40
  %20 = load i64, ptr %9, align 8, !tbaa !40
  %21 = icmp slt i64 %20, 0
  br i1 %21, label %22, label %25

22:                                               ; preds = %2
  %23 = load i64, ptr %9, align 8, !tbaa !40
  %24 = trunc i64 %23 to i32
  store i32 %24, ptr %3, align 4
  store i32 1, ptr %11, align 4
  br label %121

25:                                               ; preds = %2
  %26 = load i64, ptr %9, align 8, !tbaa !40
  %27 = icmp sgt i64 %26, 2147483647
  br i1 %27, label %28, label %29

28:                                               ; preds = %25
  store i32 -33, ptr %3, align 4
  store i32 1, ptr %11, align 4
  br label %121

29:                                               ; preds = %25
  %30 = load i64, ptr %9, align 8, !tbaa !40
  %31 = icmp eq i64 %30, 0
  br i1 %31, label %32, label %33

32:                                               ; preds = %29
  store i64 4096, ptr %9, align 8, !tbaa !40
  br label %33

33:                                               ; preds = %32, %29
  %34 = load ptr, ptr %6, align 8, !tbaa !36
  %35 = getelementptr inbounds nuw %struct.JXLAnimDemuxContext, ptr %34, i32 0, i32 0
  %36 = load ptr, ptr %35, align 8, !tbaa !41
  %37 = icmp ne ptr %36, null
  br i1 %37, label %38, label %52

38:                                               ; preds = %33
  %39 = load i64, ptr %9, align 8, !tbaa !40
  %40 = load ptr, ptr %6, align 8, !tbaa !36
  %41 = getelementptr inbounds nuw %struct.JXLAnimDemuxContext, ptr %40, i32 0, i32 0
  %42 = load ptr, ptr %41, align 8, !tbaa !41
  %43 = getelementptr inbounds nuw %struct.AVBufferRef, ptr %42, i32 0, i32 2
  %44 = load i64, ptr %43, align 8, !tbaa !47
  %45 = icmp ult i64 %39, %44
  br i1 %45, label %46, label %52

46:                                               ; preds = %38
  %47 = load ptr, ptr %6, align 8, !tbaa !36
  %48 = getelementptr inbounds nuw %struct.JXLAnimDemuxContext, ptr %47, i32 0, i32 0
  %49 = load ptr, ptr %48, align 8, !tbaa !41
  %50 = getelementptr inbounds nuw %struct.AVBufferRef, ptr %49, i32 0, i32 2
  %51 = load i64, ptr %50, align 8, !tbaa !47
  store i64 %51, ptr %9, align 8, !tbaa !40
  br label %52

52:                                               ; preds = %46, %38, %33
  %53 = load ptr, ptr %5, align 8, !tbaa !72
  %54 = load i64, ptr %9, align 8, !tbaa !40
  %55 = trunc i64 %54 to i32
  %56 = call i32 @av_new_packet(ptr noundef %53, i32 noundef %55)
  store i32 %56, ptr %8, align 4, !tbaa !9
  %57 = load i32, ptr %8, align 4, !tbaa !9
  %58 = icmp slt i32 %57, 0
  br i1 %58, label %59, label %61

59:                                               ; preds = %52
  %60 = load i32, ptr %8, align 4, !tbaa !9
  store i32 %60, ptr %3, align 4
  store i32 1, ptr %11, align 4
  br label %121

61:                                               ; preds = %52
  %62 = load ptr, ptr %6, align 8, !tbaa !36
  %63 = getelementptr inbounds nuw %struct.JXLAnimDemuxContext, ptr %62, i32 0, i32 0
  %64 = load ptr, ptr %63, align 8, !tbaa !41
  %65 = icmp ne ptr %64, null
  br i1 %65, label %66, label %83

66:                                               ; preds = %61
  %67 = load ptr, ptr %6, align 8, !tbaa !36
  %68 = getelementptr inbounds nuw %struct.JXLAnimDemuxContext, ptr %67, i32 0, i32 0
  %69 = load ptr, ptr %68, align 8, !tbaa !41
  %70 = getelementptr inbounds nuw %struct.AVBufferRef, ptr %69, i32 0, i32 2
  %71 = load i64, ptr %70, align 8, !tbaa !47
  store i64 %71, ptr %10, align 8, !tbaa !40
  %72 = load ptr, ptr %5, align 8, !tbaa !72
  %73 = getelementptr inbounds nuw %struct.AVPacket, ptr %72, i32 0, i32 3
  %74 = load ptr, ptr %73, align 8, !tbaa !74
  %75 = load ptr, ptr %6, align 8, !tbaa !36
  %76 = getelementptr inbounds nuw %struct.JXLAnimDemuxContext, ptr %75, i32 0, i32 0
  %77 = load ptr, ptr %76, align 8, !tbaa !41
  %78 = getelementptr inbounds nuw %struct.AVBufferRef, ptr %77, i32 0, i32 1
  %79 = load ptr, ptr %78, align 8, !tbaa !44
  %80 = load i64, ptr %10, align 8, !tbaa !40
  call void @llvm.memcpy.p0.p0.i64(ptr align 1 %74, ptr align 1 %79, i64 %80, i1 false)
  %81 = load ptr, ptr %6, align 8, !tbaa !36
  %82 = getelementptr inbounds nuw %struct.JXLAnimDemuxContext, ptr %81, i32 0, i32 0
  call void @av_buffer_unref(ptr noundef %82)
  br label %83

83:                                               ; preds = %66, %61
  %84 = load ptr, ptr %7, align 8, !tbaa !39
  %85 = call i64 @avio_tell(ptr noundef %84)
  %86 = load i64, ptr %10, align 8, !tbaa !40
  %87 = sub i64 %85, %86
  %88 = load ptr, ptr %5, align 8, !tbaa !72
  %89 = getelementptr inbounds nuw %struct.AVPacket, ptr %88, i32 0, i32 10
  store i64 %87, ptr %89, align 8, !tbaa !75
  %90 = load ptr, ptr %7, align 8, !tbaa !39
  %91 = load ptr, ptr %5, align 8, !tbaa !72
  %92 = getelementptr inbounds nuw %struct.AVPacket, ptr %91, i32 0, i32 3
  %93 = load ptr, ptr %92, align 8, !tbaa !74
  %94 = load i64, ptr %10, align 8, !tbaa !40
  %95 = getelementptr inbounds nuw i8, ptr %93, i64 %94
  %96 = load i64, ptr %9, align 8, !tbaa !40
  %97 = load i64, ptr %10, align 8, !tbaa !40
  %98 = sub i64 %96, %97
  %99 = trunc i64 %98 to i32
  %100 = call i32 @avio_read(ptr noundef %90, ptr noundef %95, i32 noundef %99)
  store i32 %100, ptr %8, align 4, !tbaa !9
  %101 = load i32, ptr %8, align 4, !tbaa !9
  %102 = icmp slt i32 %101, 0
  br i1 %102, label %103, label %105

103:                                              ; preds = %83
  %104 = load i32, ptr %8, align 4, !tbaa !9
  store i32 %104, ptr %3, align 4
  store i32 1, ptr %11, align 4
  br label %121

105:                                              ; preds = %83
  %106 = load i32, ptr %8, align 4, !tbaa !9
  %107 = sext i32 %106 to i64
  %108 = load i64, ptr %9, align 8, !tbaa !40
  %109 = load i64, ptr %10, align 8, !tbaa !40
  %110 = sub i64 %108, %109
  %111 = icmp ult i64 %107, %110
  br i1 %111, label %112, label %120

112:                                              ; preds = %105
  %113 = load i32, ptr %8, align 4, !tbaa !9
  %114 = sext i32 %113 to i64
  %115 = load i64, ptr %10, align 8, !tbaa !40
  %116 = add i64 %114, %115
  %117 = trunc i64 %116 to i32
  %118 = load ptr, ptr %5, align 8, !tbaa !72
  %119 = getelementptr inbounds nuw %struct.AVPacket, ptr %118, i32 0, i32 4
  store i32 %117, ptr %119, align 8, !tbaa !76
  br label %120

120:                                              ; preds = %112, %105
  store i32 0, ptr %3, align 4
  store i32 1, ptr %11, align 4
  br label %121

121:                                              ; preds = %120, %103, %59, %28, %22
  call void @llvm.lifetime.end.p0(i64 8, ptr %10) #6
  call void @llvm.lifetime.end.p0(i64 8, ptr %9) #6
  call void @llvm.lifetime.end.p0(i64 4, ptr %8) #6
  call void @llvm.lifetime.end.p0(i64 8, ptr %7) #6
  call void @llvm.lifetime.end.p0(i64 8, ptr %6) #6
  %122 = load i32, ptr %3, align 4
  ret i32 %122
}