; Function Attrs: nounwind uwtable
define internal i32 @jpegxl_anim_read_packet(ptr noundef readonly captures(none) %0, ptr noundef %1) #0 {
  %3 = getelementptr inbounds nuw i8, ptr %0, i64 24
  %4 = load ptr, ptr %3, align 8, !tbaa !14
  %5 = getelementptr inbounds nuw i8, ptr %0, i64 32
  %6 = load ptr, ptr %5, align 8, !tbaa !29
  %7 = tail call i64 @avio_size(ptr noundef %6) #6
  %8 = icmp slt i64 %7, 0
  br i1 %8, label %9, label %11

9:                                                ; preds = %2
  %10 = trunc i64 %7 to i32
  br label %50

11:                                               ; preds = %2
  %12 = icmp samesign ugt i64 %7, 2147483647
  br i1 %12, label %50, label %13

13:                                               ; preds = %11
  %14 = icmp eq i64 %7, 0
  %spec.store.select = select i1 %14, i64 4096, i64 %7
  %15 = load ptr, ptr %4, align 8, !tbaa !30
  %.not = icmp eq ptr %15, null
  br i1 %.not, label %19, label %16

16:                                               ; preds = %13
  %17 = getelementptr inbounds nuw i8, ptr %15, i64 16
  %18 = load i64, ptr %17, align 8, !tbaa !36
  %spec.select = tail call i64 @llvm.umax.i64(i64 %spec.store.select, i64 %18)
  br label %19

19:                                               ; preds = %16, %13
  %.037 = phi i64 [ %spec.store.select, %13 ], [ %spec.select, %16 ]
  %20 = trunc i64 %.037 to i32
  %21 = tail call i32 @av_new_packet(ptr noundef %1, i32 noundef %20) #6
  %22 = icmp slt i32 %21, 0
  br i1 %22, label %50, label %23

23:                                               ; preds = %19
  %24 = load ptr, ptr %4, align 8, !tbaa !30
  %.not47 = icmp eq ptr %24, null
  br i1 %.not47, label %32, label %25

25:                                               ; preds = %23
  %26 = getelementptr inbounds nuw i8, ptr %24, i64 16
  %27 = load i64, ptr %26, align 8, !tbaa !36
  %28 = getelementptr inbounds nuw i8, ptr %1, i64 24
  %29 = load ptr, ptr %28, align 8, !tbaa !62
  %30 = getelementptr inbounds nuw i8, ptr %24, i64 8
  %31 = load ptr, ptr %30, align 8, !tbaa !33
  tail call void @llvm.memcpy.p0.p0.i64(ptr align 1 %29, ptr align 1 %31, i64 %27, i1 false)
  tail call void @av_buffer_unref(ptr noundef nonnull %4) #6
  br label %32

32:                                               ; preds = %25, %23
  %.0 = phi i64 [ %27, %25 ], [ 0, %23 ]
  %33 = tail call i64 @avio_seek(ptr noundef %6, i64 noundef 0, i32 noundef 1) #6
  %34 = sub i64 %33, %.0
  %35 = getelementptr inbounds nuw i8, ptr %1, i64 72
  store i64 %34, ptr %35, align 8, !tbaa !63
  %36 = getelementptr inbounds nuw i8, ptr %1, i64 24
  %37 = load ptr, ptr %36, align 8, !tbaa !62
  %38 = getelementptr inbounds nuw i8, ptr %37, i64 %.0
  %39 = sub i64 %.037, %.0
  %40 = trunc i64 %39 to i32
  %41 = tail call i32 @avio_read(ptr noundef %6, ptr noundef %38, i32 noundef %40) #6
  %42 = icmp slt i32 %41, 0
  br i1 %42, label %50, label %43

43:                                               ; preds = %32
  %44 = zext nneg i32 %41 to i64
  %45 = icmp ugt i64 %39, %44
  br i1 %45, label %46, label %50

46:                                               ; preds = %43
  %47 = trunc i64 %.0 to i32
  %48 = add i32 %41, %47
  %49 = getelementptr inbounds nuw i8, ptr %1, i64 32
  store i32 %48, ptr %49, align 8, !tbaa !64
  br label %50

50:                                               ; preds = %43, %46, %32, %19, %11, %9
  %.038 = phi i32 [ %10, %9 ], [ -33, %11 ], [ %21, %19 ], [ %41, %32 ], [ 0, %46 ], [ 0, %43 ]
  ret i32 %.038
}